target datalayout = "e-m:e-p270:32:32-p271:32:32-p272:64:64-i64:64-i128:128-f80:128-n8:16:32:64-S128"
target triple = "x86_64-pc-linux-gnu"

%"class.std::__cxx11::basic_string" = type { %"struct.std::__cxx11::basic_string<char>::_Alloc_hider", i64, %union.anon }
%"struct.std::__cxx11::basic_string<char>::_Alloc_hider" = type { ptr }
%union.anon = type { i64, [8 x i8] }
%"class.rocksdb::SstFileManagerImpl" = type { %"class.rocksdb::SstFileManager", %"class.std::shared_ptr", %"class.std::shared_ptr.3", %"class.std::shared_ptr.6", %"class.rocksdb::port::Mutex", i64, i64, i64, %"class.std::unordered_map", i64, %"class.rocksdb::DeleteScheduler", %"class.rocksdb::port::CondVar", i8, %"class.std::unique_ptr", %"class.std::__cxx11::basic_string", %"class.rocksdb::Status", i64, i64, %"class.std::__cxx11::list", ptr, %"class.std::shared_ptr.31" }
%"class.rocksdb::SstFileManager" = type { ptr }
%"class.std::shared_ptr" = type { %"class.std::__shared_ptr" }
%"class.std::__shared_ptr" = type { ptr, %"class.std::__shared_count" }
%"class.std::__shared_count" = type { ptr }
%"class.std::shared_ptr.3" = type { %"class.std::__shared_ptr.4" }
%"class.std::__shared_ptr.4" = type { ptr, %"class.std::__shared_count" }
%"class.std::shared_ptr.6" = type { %"class.std::__shared_ptr.7" }
%"class.std::__shared_ptr.7" = type { ptr, %"class.std::__shared_count" }
%"class.rocksdb::port::Mutex" = type { %union.pthread_mutex_t }
%union.pthread_mutex_t = type { %struct.__pthread_mutex_s }
%struct.__pthread_mutex_s = type { i32, i32, i32, i32, i32, i16, i16, %struct.__pthread_internal_list }
%struct.__pthread_internal_list = type { ptr, ptr }
%"class.std::unordered_map" = type { %"class.std::_Hashtable" }
%"class.std::_Hashtable" = type { ptr, i64, %"struct.std::__detail::_Hash_node_base", i64, %"struct.std::__detail::_Prime_rehash_policy", ptr }
%"struct.std::__detail::_Hash_node_base" = type { ptr }
%"struct.std::__detail::_Prime_rehash_policy" = type { float, i64 }
%"class.rocksdb::DeleteScheduler" = type { ptr, ptr, %"struct.std::atomic", %"struct.std::atomic.14", %"class.rocksdb::InstrumentedMutex", %"class.std::queue", i32, i32, %"class.std::map", i64, %"class.std::map.22", i8, i8, [6 x i8], %"class.rocksdb::InstrumentedCondVar", %"class.std::unique_ptr", %"class.rocksdb::InstrumentedMutex", ptr, ptr, %"struct.std::atomic.30", %"class.std::shared_ptr.31" }
%"struct.std::atomic" = type { %"struct.std::__atomic_base" }
%"struct.std::__atomic_base" = type { i64 }
%"struct.std::atomic.14" = type { %"struct.std::__atomic_base.15" }
%"struct.std::__atomic_base.15" = type { i64 }
%"class.std::queue" = type { %"class.std::deque" }
%"class.std::deque" = type { %"class.std::_Deque_base" }
%"class.std::_Deque_base" = type { %"struct.std::_Deque_base<rocksdb::DeleteScheduler::FileAndDir, std::allocator<rocksdb::DeleteScheduler::FileAndDir>>::_Deque_impl" }
%"struct.std::_Deque_base<rocksdb::DeleteScheduler::FileAndDir, std::allocator<rocksdb::DeleteScheduler::FileAndDir>>::_Deque_impl" = type { %"struct.std::_Deque_base<rocksdb::DeleteScheduler::FileAndDir, std::allocator<rocksdb::DeleteScheduler::FileAndDir>>::_Deque_impl_data" }
%"struct.std::_Deque_base<rocksdb::DeleteScheduler::FileAndDir, std::allocator<rocksdb::DeleteScheduler::FileAndDir>>::_Deque_impl_data" = type { ptr, i64, %"struct.std::_Deque_iterator", %"struct.std::_Deque_iterator" }
%"struct.std::_Deque_iterator" = type { ptr, ptr, ptr, ptr }
%"class.std::map" = type { %"class.std::_Rb_tree" }
%"class.std::_Rb_tree" = type { %"struct.std::_Rb_tree<int, std::pair<const int, int>, std::_Select1st<std::pair<const int, int>>, std::less<int>>::_Rb_tree_impl" }
%"struct.std::_Rb_tree<int, std::pair<const int, int>, std::_Select1st<std::pair<const int, int>>, std::less<int>>::_Rb_tree_impl" = type { [8 x i8], %"struct.std::_Rb_tree_header" }
%"struct.std::_Rb_tree_header" = type { %"struct.std::_Rb_tree_node_base", i64 }
%"struct.std::_Rb_tree_node_base" = type { i32, ptr, ptr, ptr }
%"class.std::map.22" = type { %"class.std::_Rb_tree.23" }
%"class.std::_Rb_tree.23" = type { %"struct.std::_Rb_tree<std::__cxx11::basic_string<char>, std::pair<const std::__cxx11::basic_string<char>, rocksdb::Status>, std::_Select1st<std::pair<const std::__cxx11::basic_string<char>, rocksdb::Status>>, std::less<std::__cxx11::basic_string<char>>>::_Rb_tree_impl" }
%"struct.std::_Rb_tree<std::__cxx11::basic_string<char>, std::pair<const std::__cxx11::basic_string<char>, rocksdb::Status>, std::_Select1st<std::pair<const std::__cxx11::basic_string<char>, rocksdb::Status>>, std::less<std::__cxx11::basic_string<char>>>::_Rb_tree_impl" = type { [8 x i8], %"struct.std::_Rb_tree_header" }
%"class.rocksdb::InstrumentedCondVar" = type <{ %"class.rocksdb::port::CondVar", ptr, ptr, i32, [4 x i8] }>
%"class.rocksdb::InstrumentedMutex" = type <{ %"class.rocksdb::port::Mutex", ptr, ptr, i32, [4 x i8] }>
%"struct.std::atomic.30" = type { double }
%"class.rocksdb::port::CondVar" = type { %union.pthread_cond_t, ptr }
%union.pthread_cond_t = type { %struct.__pthread_cond_s }
%struct.__pthread_cond_s = type { %union.__atomic_wide_counter, %union.__atomic_wide_counter, [2 x i32], [2 x i32], i32, i32, [2 x i32] }
%union.__atomic_wide_counter = type { i64 }
%"class.std::unique_ptr" = type { %"struct.std::__uniq_ptr_data" }
%"struct.std::__uniq_ptr_data" = type { %"class.std::__uniq_ptr_impl" }
%"class.std::__uniq_ptr_impl" = type { %"class.std::tuple" }
%"class.std::tuple" = type { %"struct.std::_Tuple_impl" }
%"struct.std::_Tuple_impl" = type { %"struct.std::_Head_base.29" }
%"struct.std::_Head_base.29" = type { ptr }
%"class.rocksdb::Status" = type { i8, i8, i8, i8, i8, i8, %"class.std::unique_ptr.34" }
%"class.std::unique_ptr.34" = type { %"struct.std::__uniq_ptr_data.35" }
%"struct.std::__uniq_ptr_data.35" = type { %"class.std::__uniq_ptr_impl.36" }
%"class.std::__uniq_ptr_impl.36" = type { %"class.std::tuple.37" }
%"class.std::tuple.37" = type { %"struct.std::_Tuple_impl.38" }
%"struct.std::_Tuple_impl.38" = type { %"struct.std::_Head_base.41" }
%"struct.std::_Head_base.41" = type { ptr }
%"class.std::__cxx11::list" = type { %"class.std::__cxx11::_List_base" }
%"class.std::__cxx11::_List_base" = type { %"struct.std::__cxx11::_List_base<rocksdb::ErrorHandler *, std::allocator<rocksdb::ErrorHandler *>>::_List_impl" }
%"struct.std::__cxx11::_List_base<rocksdb::ErrorHandler *, std::allocator<rocksdb::ErrorHandler *>>::_List_impl" = type { %"struct.std::__detail::_List_node_header" }
%"struct.std::__detail::_List_node_header" = type { %"struct.std::__detail::_List_node_base", i64 }
%"struct.std::__detail::_List_node_base" = type { ptr, ptr }
%"class.std::shared_ptr.31" = type { %"class.std::__shared_ptr.32" }
%"class.std::__shared_ptr.32" = type { ptr, %"class.std::__shared_count" }
%"class.rocksdb::MutexLock" = type { ptr }

; Function Attrs: mustprogress nounwind uwtable
define linkonce_odr void @_ZN7rocksdb9MutexLockD2Ev(ptr noundef nonnull align 8 dereferenceable(8) %0) unnamed_addr #3 comdat align 2 personality ptr @__gxx_personality_v0 {
  %2 = alloca ptr, align 8
  store ptr %0, ptr %2, align 8, !tbaa !189
  %3 = load ptr, ptr %2, align 8
  %4 = getelementptr inbounds nuw %"class.rocksdb::MutexLock", ptr %3, i32 0, i32 0
  %5 = load ptr, ptr %4, align 8, !tbaa !192
  invoke void @_ZN7rocksdb4port5Mutex6UnlockEv(ptr noundef nonnull align 8 dereferenceable(40) %5)
          to label %6 unwind label %7

6:                                                ; preds = %1
  ret void

7:                                                ; preds = %1
  %8 = landingpad { ptr, i32 }
          catch ptr null
  %9 = extractvalue { ptr, i32 } %8, 0
  call void @__clang_call_terminate(ptr %9) #21
  unreachable
}

; Function Attrs: mustprogress uwtable
define linkonce_odr void @_ZN7rocksdb9MutexLockC2EPNS_4port5MutexE(ptr noundef nonnull align 8 dereferenceable(8) %0, ptr noundef %1) unnamed_addr #5 comdat align 2 {
  %3 = alloca ptr, align 8
  %4 = alloca ptr, align 8
  store ptr %0, ptr %3, align 8, !tbaa !189
  store ptr %1, ptr %4, align 8, !tbaa !191
  %5 = load ptr, ptr %3, align 8
  %6 = getelementptr inbounds nuw %"class.rocksdb::MutexLock", ptr %5, i32 0, i32 0
  %7 = load ptr, ptr %4, align 8, !tbaa !191
  store ptr %7, ptr %6, align 8, !tbaa !192
  %8 = getelementptr inbounds nuw %"class.rocksdb::MutexLock", ptr %5, i32 0, i32 0
  %9 = load ptr, ptr %8, align 8, !tbaa !192
  call void @_ZN7rocksdb4port5Mutex4LockEv(ptr noundef nonnull align 8 dereferenceable(40) %9)
  ret void
}

; Function Attrs: mustprogress uwtable
define noundef i64 @_ZN7rocksdb18SstFileManagerImpl26GetCompactionsReservedSizeEv(ptr noundef nonnull align 8 dereferenceable(856) %0) #5 align 2 {
  %2 = alloca ptr, align 8
  %3 = alloca %"class.rocksdb::MutexLock", align 8
  store ptr %0, ptr %2, align 8, !tbaa !48
  %4 = load ptr, ptr %2, align 8
  call void @llvm.lifetime.start.p0(i64 8, ptr %3) #4
  %5 = getelementptr inbounds nuw %"class.rocksdb::SstFileManagerImpl", ptr %4, i32 0, i32 4
  call void @_ZN7rocksdb9MutexLockC2EPNS_4port5MutexE(ptr noundef nonnull align 8 dereferenceable(8) %3, ptr noundef %5)
  %6 = getelementptr inbounds nuw %"class.rocksdb::SstFileManagerImpl", ptr %4, i32 0, i32 7
  %7 = load i64, ptr %6, align 8, !tbaa !147
  call void @_ZN7rocksdb9MutexLockD2Ev(ptr noundef nonnull align 8 dereferenceable(8) %3) #4
  call void @llvm.lifetime.end.p0(i64 8, ptr %3) #4
  ret i64 %7
}