; Function Attrs: mustprogress uwtable
define noundef i64 @_ZN7rocksdb18SstFileManagerImpl26GetCompactionsReservedSizeEv(ptr noundef nonnull align 8 dereferenceable(856) %0) local_unnamed_addr #4 align 2 personality ptr @__gxx_personality_v0 {
  %2 = getelementptr inbounds nuw i8, ptr %0, i64 56
  tail call void @_ZN7rocksdb4port5Mutex4LockEv(ptr noundef nonnull align 8 dereferenceable(40) %2)
  %3 = getelementptr inbounds nuw i8, ptr %0, i64 112
  %4 = load i64, ptr %3, align 8, !tbaa !181
  invoke void @_ZN7rocksdb4port5Mutex6UnlockEv(ptr noundef nonnull align 8 dereferenceable(40) %2)
          to label %_ZN7rocksdb9MutexLockD2Ev.exit unwind label %5

5:                                                ; preds = %1
  %6 = landingpad { ptr, i32 }
          catch ptr null
  %7 = extractvalue { ptr, i32 } %6, 0
  tail call void @__clang_call_terminate(ptr %7) #24
  unreachable

_ZN7rocksdb9MutexLockD2Ev.exit:                   ; preds = %1
  ret i64 %4
}